target datalayout = "e-m:e-p270:32:32-p271:32:32-p272:64:64-i64:64-i128:128-f80:128-n8:16:32:64-S128"
target triple = "x86_64-pc-linux-gnu"

%struct.LOCKTAG = type { i32, i32, i32, i16, i8, i8 }

@.str = private unnamed_addr constant [27 x i8] c"relation %u of database %u\00", align 1
@.str.1 = private unnamed_addr constant [40 x i8] c"extension of relation %u of database %u\00", align 1
@.str.2 = private unnamed_addr constant [40 x i8] c"pg_database.datfrozenxid of database %u\00", align 1
@.str.3 = private unnamed_addr constant [38 x i8] c"page %u of relation %u of database %u\00", align 1
@.str.4 = private unnamed_addr constant [44 x i8] c"tuple (%u,%u) of relation %u of database %u\00", align 1
@.str.5 = private unnamed_addr constant [15 x i8] c"transaction %u\00", align 1
@.str.6 = private unnamed_addr constant [26 x i8] c"virtual transaction %d/%u\00", align 1
@.str.7 = private unnamed_addr constant [39 x i8] c"speculative token %u of transaction %u\00", align 1
@.str.8 = private unnamed_addr constant [37 x i8] c"object %u of class %u of database %u\00", align 1
@.str.9 = private unnamed_addr constant [21 x i8] c"user lock [%u,%u,%u]\00", align 1
@.str.10 = private unnamed_addr constant [28 x i8] c"advisory lock [%u,%u,%u,%u]\00", align 1
@.str.11 = private unnamed_addr constant [56 x i8] c"remote transaction %u of subscription %u of database %u\00", align 1
@.str.12 = private unnamed_addr constant [29 x i8] c"unrecognized locktag type %d\00", align 1

; Function Attrs: nounwind uwtable
define dso_local void @DescribeLockTag(ptr noundef %0, ptr noundef %1) #0 {
  %3 = alloca ptr, align 8
  %4 = alloca ptr, align 8
  store ptr %0, ptr %3, align 8
  store ptr %1, ptr %4, align 8
  %5 = load ptr, ptr %4, align 8
  %6 = getelementptr inbounds nuw %struct.LOCKTAG, ptr %5, i32 0, i32 4
  %7 = load i8, ptr %6, align 2
  %8 = zext i8 %7 to i32
  switch i32 %8, label %125 [
    i32 0, label %9
    i32 1, label %17
    i32 2, label %25
    i32 3, label %30
    i32 4, label %41
    i32 5, label %56
    i32 6, label %61
    i32 7, label %69
    i32 8, label %77
    i32 9, label %88
    i32 10, label %99
    i32 11, label %114
  ]

9:                                                ; preds = %2
  %10 = load ptr, ptr %3, align 8
  %11 = load ptr, ptr %4, align 8
  %12 = getelementptr inbounds nuw %struct.LOCKTAG, ptr %11, i32 0, i32 1
  %13 = load i32, ptr %12, align 4
  %14 = load ptr, ptr %4, align 8
  %15 = getelementptr inbounds nuw %struct.LOCKTAG, ptr %14, i32 0, i32 0
  %16 = load i32, ptr %15, align 4
  call void (ptr, ptr, ...) @appendStringInfo(ptr noundef %10, ptr noundef @.str, i32 noundef %13, i32 noundef %16)
  br label %131

17:                                               ; preds = %2
  %18 = load ptr, ptr %3, align 8
  %19 = load ptr, ptr %4, align 8
  %20 = getelementptr inbounds nuw %struct.LOCKTAG, ptr %19, i32 0, i32 1
  %21 = load i32, ptr %20, align 4
  %22 = load ptr, ptr %4, align 8
  %23 = getelementptr inbounds nuw %struct.LOCKTAG, ptr %22, i32 0, i32 0
  %24 = load i32, ptr %23, align 4
  call void (ptr, ptr, ...) @appendStringInfo(ptr noundef %18, ptr noundef @.str.1, i32 noundef %21, i32 noundef %24)
  br label %131

25:                                               ; preds = %2
  %26 = load ptr, ptr %3, align 8
  %27 = load ptr, ptr %4, align 8
  %28 = getelementptr inbounds nuw %struct.LOCKTAG, ptr %27, i32 0, i32 0
  %29 = load i32, ptr %28, align 4
  call void (ptr, ptr, ...) @appendStringInfo(ptr noundef %26, ptr noundef @.str.2, i32 noundef %29)
  br label %131

30:                                               ; preds = %2
  %31 = load ptr, ptr %3, align 8
  %32 = load ptr, ptr %4, align 8
  %33 = getelementptr inbounds nuw %struct.LOCKTAG, ptr %32, i32 0, i32 2
  %34 = load i32, ptr %33, align 4
  %35 = load ptr, ptr %4, align 8
  %36 = getelementptr inbounds nuw %struct.LOCKTAG, ptr %35, i32 0, i32 1
  %37 = load i32, ptr %36, align 4
  %38 = load ptr, ptr %4, align 8
  %39 = getelementptr inbounds nuw %struct.LOCKTAG, ptr %38, i32 0, i32 0
  %40 = load i32, ptr %39, align 4
  call void (ptr, ptr, ...) @appendStringInfo(ptr noundef %31, ptr noundef @.str.3, i32 noundef %34, i32 noundef %37, i32 noundef %40)
  br label %131

41:                                               ; preds = %2
  %42 = load ptr, ptr %3, align 8
  %43 = load ptr, ptr %4, align 8
  %44 = getelementptr inbounds nuw %struct.LOCKTAG, ptr %43, i32 0, i32 2
  %45 = load i32, ptr %44, align 4
  %46 = load ptr, ptr %4, align 8
  %47 = getelementptr inbounds nuw %struct.LOCKTAG, ptr %46, i32 0, i32 3
  %48 = load i16, ptr %47, align 4
  %49 = zext i16 %48 to i32
  %50 = load ptr, ptr %4, align 8
  %51 = getelementptr inbounds nuw %struct.LOCKTAG, ptr %50, i32 0, i32 1
  %52 = load i32, ptr %51, align 4
  %53 = load ptr, ptr %4, align 8
  %54 = getelementptr inbounds nuw %struct.LOCKTAG, ptr %53, i32 0, i32 0
  %55 = load i32, ptr %54, align 4
  call void (ptr, ptr, ...) @appendStringInfo(ptr noundef %42, ptr noundef @.str.4, i32 noundef %45, i32 noundef %49, i32 noundef %52, i32 noundef %55)
  br label %131

56:                                               ; preds = %2
  %57 = load ptr, ptr %3, align 8
  %58 = load ptr, ptr %4, align 8
  %59 = getelementptr inbounds nuw %struct.LOCKTAG, ptr %58, i32 0, i32 0
  %60 = load i32, ptr %59, align 4
  call void (ptr, ptr, ...) @appendStringInfo(ptr noundef %57, ptr noundef @.str.5, i32 noundef %60)
  br label %131

61:                                               ; preds = %2
  %62 = load ptr, ptr %3, align 8
  %63 = load ptr, ptr %4, align 8
  %64 = getelementptr inbounds nuw %struct.LOCKTAG, ptr %63, i32 0, i32 0
  %65 = load i32, ptr %64, align 4
  %66 = load ptr, ptr %4, align 8
  %67 = getelementptr inbounds nuw %struct.LOCKTAG, ptr %66, i32 0, i32 1
  %68 = load i32, ptr %67, align 4
  call void (ptr, ptr, ...) @appendStringInfo(ptr noundef %62, ptr noundef @.str.6, i32 noundef %65, i32 noundef %68)
  br label %131

69:                                               ; preds = %2
  %70 = load ptr, ptr %3, align 8
  %71 = load ptr, ptr %4, align 8
  %72 = getelementptr inbounds nuw %struct.LOCKTAG, ptr %71, i32 0, i32 1
  %73 = load i32, ptr %72, align 4
  %74 = load ptr, ptr %4, align 8
  %75 = getelementptr inbounds nuw %struct.LOCKTAG, ptr %74, i32 0, i32 0
  %76 = load i32, ptr %75, align 4
  call void (ptr, ptr, ...) @appendStringInfo(ptr noundef %70, ptr noundef @.str.7, i32 noundef %73, i32 noundef %76)
  br label %131

77:                                               ; preds = %2
  %78 = load ptr, ptr %3, align 8
  %79 = load ptr, ptr %4, align 8
  %80 = getelementptr inbounds nuw %struct.LOCKTAG, ptr %79, i32 0, i32 2
  %81 = load i32, ptr %80, align 4
  %82 = load ptr, ptr %4, align 8
  %83 = getelementptr inbounds nuw %struct.LOCKTAG, ptr %82, i32 0, i32 1
  %84 = load i32, ptr %83, align 4
  %85 = load ptr, ptr %4, align 8
  %86 = getelementptr inbounds nuw %struct.LOCKTAG, ptr %85, i32 0, i32 0
  %87 = load i32, ptr %86, align 4
  call void (ptr, ptr, ...) @appendStringInfo(ptr noundef %78, ptr noundef @.str.8, i32 noundef %81, i32 noundef %84, i32 noundef %87)
  br label %131

88:                                               ; preds = %2
  %89 = load ptr, ptr %3, align 8
  %90 = load ptr, ptr %4, align 8
  %91 = getelementptr inbounds nuw %struct.LOCKTAG, ptr %90, i32 0, i32 0
  %92 = load i32, ptr %91, align 4
  %93 = load ptr, ptr %4, align 8
  %94 = getelementptr inbounds nuw %struct.LOCKTAG, ptr %93, i32 0, i32 1
  %95 = load i32, ptr %94, align 4
  %96 = load ptr, ptr %4, align 8
  %97 = getelementptr inbounds nuw %struct.LOCKTAG, ptr %96, i32 0, i32 2
  %98 = load i32, ptr %97, align 4
  call void (ptr, ptr, ...) @appendStringInfo(ptr noundef %89, ptr noundef @.str.9, i32 noundef %92, i32 noundef %95, i32 noundef %98)
  br label %131

99:                                               ; preds = %2
  %100 = load ptr, ptr %3, align 8
  %101 = load ptr, ptr %4, align 8
  %102 = getelementptr inbounds nuw %struct.LOCKTAG, ptr %101, i32 0, i32 0
  %103 = load i32, ptr %102, align 4
  %104 = load ptr, ptr %4, align 8
  %105 = getelementptr inbounds nuw %struct.LOCKTAG, ptr %104, i32 0, i32 1
  %106 = load i32, ptr %105, align 4
  %107 = load ptr, ptr %4, align 8
  %108 = getelementptr inbounds nuw %struct.LOCKTAG, ptr %107, i32 0, i32 2
  %109 = load i32, ptr %108, align 4
  %110 = load ptr, ptr %4, align 8
  %111 = getelementptr inbounds nuw %struct.LOCKTAG, ptr %110, i32 0, i32 3
  %112 = load i16, ptr %111, align 4
  %113 = zext i16 %112 to i32
  call void (ptr, ptr, ...) @appendStringInfo(ptr noundef %100, ptr noundef @.str.10, i32 noundef %103, i32 noundef %106, i32 noundef %109, i32 noundef %113)
  br label %131

114:                                              ; preds = %2
  %115 = load ptr, ptr %3, align 8
  %116 = load ptr, ptr %4, align 8
  %117 = getelementptr inbounds nuw %struct.LOCKTAG, ptr %116, i32 0, i32 2
  %118 = load i32, ptr %117, align 4
  %119 = load ptr, ptr %4, align 8
  %120 = getelementptr inbounds nuw %struct.LOCKTAG, ptr %119, i32 0, i32 1
  %121 = load i32, ptr %120, align 4
  %122 = load ptr, ptr %4, align 8
  %123 = getelementptr inbounds nuw %struct.LOCKTAG, ptr %122, i32 0, i32 0
  %124 = load i32, ptr %123, align 4
  call void (ptr, ptr, ...) @appendStringInfo(ptr noundef %115, ptr noundef @.str.11, i32 noundef %118, i32 noundef %121, i32 noundef %124)
  br label %131

125:                                              ; preds = %2
  %126 = load ptr, ptr %3, align 8
  %127 = load ptr, ptr %4, align 8
  %128 = getelementptr inbounds nuw %struct.LOCKTAG, ptr %127, i32 0, i32 4
  %129 = load i8, ptr %128, align 2
  %130 = zext i8 %129 to i32
  call void (ptr, ptr, ...) @appendStringInfo(ptr noundef %126, ptr noundef @.str.12, i32 noundef %130)
  br label %131

131:                                              ; preds = %125, %114, %99, %88, %77, %69, %61, %56, %41, %30, %25, %17, %9
  ret void
}