; Function Attrs: nounwind uwtable
define dso_local void @DescribeLockTag(ptr noundef %0, ptr noundef readonly captures(none) %1) local_unnamed_addr #1 {
  %3 = getelementptr inbounds nuw i8, ptr %1, i64 14
  %4 = load i8, ptr %3, align 2
  switch i8 %4, label %67 [
    i8 0, label %5
    i8 1, label %9
    i8 2, label %13
    i8 3, label %15
    i8 4, label %21
    i8 5, label %30
    i8 6, label %32
    i8 7, label %36
    i8 8, label %40
    i8 9, label %46
    i8 10, label %52
    i8 11, label %61
  ]

5:                                                ; preds = %2
  %6 = getelementptr inbounds nuw i8, ptr %1, i64 4
  %7 = load i32, ptr %6, align 4
  %8 = load i32, ptr %1, align 4
  tail call void (ptr, ptr, ...) @appendStringInfo(ptr noundef %0, ptr noundef nonnull @.str, i32 noundef %7, i32 noundef %8) #8
  br label %69

9:                                                ; preds = %2
  %10 = getelementptr inbounds nuw i8, ptr %1, i64 4
  %11 = load i32, ptr %10, align 4
  %12 = load i32, ptr %1, align 4
  tail call void (ptr, ptr, ...) @appendStringInfo(ptr noundef %0, ptr noundef nonnull @.str.1, i32 noundef %11, i32 noundef %12) #8
  br label %69

13:                                               ; preds = %2
  %14 = load i32, ptr %1, align 4
  tail call void (ptr, ptr, ...) @appendStringInfo(ptr noundef %0, ptr noundef nonnull @.str.2, i32 noundef %14) #8
  br label %69

15:                                               ; preds = %2
  %16 = getelementptr inbounds nuw i8, ptr %1, i64 8
  %17 = load i32, ptr %16, align 4
  %18 = getelementptr inbounds nuw i8, ptr %1, i64 4
  %19 = load i32, ptr %18, align 4
  %20 = load i32, ptr %1, align 4
  tail call void (ptr, ptr, ...) @appendStringInfo(ptr noundef %0, ptr noundef nonnull @.str.3, i32 noundef %17, i32 noundef %19, i32 noundef %20) #8
  br label %69

21:                                               ; preds = %2
  %22 = getelementptr inbounds nuw i8, ptr %1, i64 8
  %23 = load i32, ptr %22, align 4
  %24 = getelementptr inbounds nuw i8, ptr %1, i64 12
  %25 = load i16, ptr %24, align 4
  %26 = zext i16 %25 to i32
  %27 = getelementptr inbounds nuw i8, ptr %1, i64 4
  %28 = load i32, ptr %27, align 4
  %29 = load i32, ptr %1, align 4
  tail call void (ptr, ptr, ...) @appendStringInfo(ptr noundef %0, ptr noundef nonnull @.str.4, i32 noundef %23, i32 noundef %26, i32 noundef %28, i32 noundef %29) #8
  br label %69

30:                                               ; preds = %2
  %31 = load i32, ptr %1, align 4
  tail call void (ptr, ptr, ...) @appendStringInfo(ptr noundef %0, ptr noundef nonnull @.str.5, i32 noundef %31) #8
  br label %69

32:                                               ; preds = %2
  %33 = load i32, ptr %1, align 4
  %34 = getelementptr inbounds nuw i8, ptr %1, i64 4
  %35 = load i32, ptr %34, align 4
  tail call void (ptr, ptr, ...) @appendStringInfo(ptr noundef %0, ptr noundef nonnull @.str.6, i32 noundef %33, i32 noundef %35) #8
  br label %69

36:                                               ; preds = %2
  %37 = getelementptr inbounds nuw i8, ptr %1, i64 4
  %38 = load i32, ptr %37, align 4
  %39 = load i32, ptr %1, align 4
  tail call void (ptr, ptr, ...) @appendStringInfo(ptr noundef %0, ptr noundef nonnull @.str.7, i32 noundef %38, i32 noundef %39) #8
  br label %69

40:                                               ; preds = %2
  %41 = getelementptr inbounds nuw i8, ptr %1, i64 8
  %42 = load i32, ptr %41, align 4
  %43 = getelementptr inbounds nuw i8, ptr %1, i64 4
  %44 = load i32, ptr %43, align 4
  %45 = load i32, ptr %1, align 4
  tail call void (ptr, ptr, ...) @appendStringInfo(ptr noundef %0, ptr noundef nonnull @.str.8, i32 noundef %42, i32 noundef %44, i32 noundef %45) #8
  br label %69

46:                                               ; preds = %2
  %47 = load i32, ptr %1, align 4
  %48 = getelementptr inbounds nuw i8, ptr %1, i64 4
  %49 = load i32, ptr %48, align 4
  %50 = getelementptr inbounds nuw i8, ptr %1, i64 8
  %51 = load i32, ptr %50, align 4
  tail call void (ptr, ptr, ...) @appendStringInfo(ptr noundef %0, ptr noundef nonnull @.str.9, i32 noundef %47, i32 noundef %49, i32 noundef %51) #8
  br label %69

52:                                               ; preds = %2
  %53 = load i32, ptr %1, align 4
  %54 = getelementptr inbounds nuw i8, ptr %1, i64 4
  %55 = load i32, ptr %54, align 4
  %56 = getelementptr inbounds nuw i8, ptr %1, i64 8
  %57 = load i32, ptr %56, align 4
  %58 = getelementptr inbounds nuw i8, ptr %1, i64 12
  %59 = load i16, ptr %58, align 4
  %60 = zext i16 %59 to i32
  tail call void (ptr, ptr, ...) @appendStringInfo(ptr noundef %0, ptr noundef nonnull @.str.10, i32 noundef %53, i32 noundef %55, i32 noundef %57, i32 noundef %60) #8
  br label %69

61:                                               ; preds = %2
  %62 = getelementptr inbounds nuw i8, ptr %1, i64 8
  %63 = load i32, ptr %62, align 4
  %64 = getelementptr inbounds nuw i8, ptr %1, i64 4
  %65 = load i32, ptr %64, align 4
  %66 = load i32, ptr %1, align 4
  tail call void (ptr, ptr, ...) @appendStringInfo(ptr noundef %0, ptr noundef nonnull @.str.11, i32 noundef %63, i32 noundef %65, i32 noundef %66) #8
  br label %69

67:                                               ; preds = %2
  %68 = zext i8 %4 to i32
  tail call void (ptr, ptr, ...) @appendStringInfo(ptr noundef %0, ptr noundef nonnull @.str.12, i32 noundef %68) #8
  br label %69

69:                                               ; preds = %67, %61, %52, %46, %40, %36, %32, %30, %21, %15, %13, %9, %5
  ret void
}